; Function Attrs: mustprogress nounwind uwtable
define hidden void @_ZN20PSAdaptiveSizePolicy26adjust_eden_for_pause_timeEPm(ptr noundef nonnull align 8 dereferenceable(312) %0, ptr nocapture noundef %1) local_unnamed_addr #0 align 2 {
  %3 = getelementptr inbounds i8, ptr %0, i64 48
  %4 = load ptr, ptr %3, align 8
  %5 = getelementptr inbounds i8, ptr %4, i64 20
  %6 = load float, ptr %5, align 4
  %7 = getelementptr inbounds i8, ptr %0, i64 232
  %8 = load ptr, ptr %7, align 8
  %9 = getelementptr inbounds i8, ptr %8, i64 20
  %10 = load float, ptr %9, align 4
  %11 = fcmp ogt float %6, %10
  br i1 %11, label %12, label %_ZN20PSAdaptiveSizePolicy32adjust_eden_for_minor_pause_timeEPm.exit

12:                                               ; preds = %2
  %13 = getelementptr inbounds i8, ptr %0, i64 136
  %14 = load ptr, ptr %13, align 8
  %15 = tail call noundef zeroext i1 @_ZN20LinearLeastSquareFit23decrement_will_decreaseEv(ptr noundef nonnull align 8 dereferenceable(88) %14) #7
  br i1 %15, label %16, label %_ZN20PSAdaptiveSizePolicy32adjust_eden_for_minor_pause_timeEPm.exit

16:                                               ; preds = %12
  %17 = getelementptr inbounds i8, ptr %0, i64 188
  store i32 1, ptr %17, align 4
  %18 = load i64, ptr %1, align 8
  %19 = tail call noundef i64 @_ZN18AdaptiveSizePolicy14eden_decrementEm(ptr noundef nonnull align 8 dereferenceable(232) %0, i64 noundef %18) #7
  %20 = getelementptr inbounds i8, ptr %0, i64 280
  %21 = load i64, ptr %20, align 8
  %22 = sub i64 0, %21
  %23 = and i64 %19, %22
  %24 = sub i64 %18, %23
  store i64 %24, ptr %1, align 8
  br label %_ZN20PSAdaptiveSizePolicy32adjust_eden_for_minor_pause_timeEPm.exit

_ZN20PSAdaptiveSizePolicy32adjust_eden_for_minor_pause_timeEPm.exit: ; preds = %16, %12, %2
  %25 = load volatile ptr, ptr getelementptr inbounds (i8, ptr @_ZN16LogTagSetMappingILN6LogTag4typeE49ELS1_40ELS1_0ELS1_0ELS1_0ELS1_0EE7_tagsetE, i64 48), align 8
  %.not = icmp eq ptr %25, null
  br i1 %.not, label %33, label %26

26:                                               ; preds = %_ZN20PSAdaptiveSizePolicy32adjust_eden_for_minor_pause_timeEPm.exit
  %27 = load ptr, ptr %7, align 8
  %28 = load float, ptr %27, align 4
  %29 = fpext float %28 to double
  %30 = getelementptr inbounds i8, ptr %0, i64 176
  %31 = load double, ptr %30, align 8
  %32 = load i64, ptr %1, align 8
  tail call void (ptr, ...) @_ZN7LogImplILN6LogTag4typeE49ELS1_40ELS1_0ELS1_0ELS1_0ELS1_0EE5writeILN8LogLevel4typeE1EEEvPKcz(ptr noundef nonnull @.str.18, double noundef %29, double noundef %31, i64 noundef %32, i64 noundef 0)
  br label %33

33:                                               ; preds = %_ZN20PSAdaptiveSizePolicy32adjust_eden_for_minor_pause_timeEPm.exit, %26
  ret void
}